libepubgen-0.1.so.1:_ZN10libepubgen17EPUBTextGenerator10closeFrameEv
libepubgen-0.1.so.1:_ZN10libepubgen17EPUBTextGenerator10closeGroupEv
libepubgen-0.1.so.1:_ZN10libepubgen17EPUBTextGenerator10closeTableEv
libepubgen-0.1.so.1:_ZN10libepubgen17EPUBTextGenerator10insertTextERKN10librevenge10RVNGStringE
libepubgen-0.1.so.1:_ZN10libepubgen17EPUBTextGenerator10openFooterERKN10librevenge16RVNGPropertyListE
libepubgen-0.1.so.1:_ZN10libepubgen17EPUBTextGenerator10openHeaderERKN10librevenge16RVNGPropertyListE
libepubgen-0.1.so.1:_ZN10libepubgen17EPUBTextGenerator11closeFooterEv
libepubgen-0.1.so.1:_ZN10libepubgen17EPUBTextGenerator11closeHeaderEv
libepubgen-0.1.so.1:_ZN10libepubgen17EPUBTextGenerator11drawEllipseERKN10librevenge16RVNGPropertyListE
libepubgen-0.1.so.1:_ZN10libepubgen17EPUBTextGenerator11drawPolygonERKN10librevenge16RVNGPropertyListE
libepubgen-0.1.so.1:_ZN10libepubgen17EPUBTextGenerator11endDocumentEv
libepubgen-0.1.so.1:_ZN10libepubgen17EPUBTextGenerator11insertFieldERKN10librevenge16RVNGPropertyListE
libepubgen-0.1.so.1:_ZN10libepubgen17EPUBTextGenerator11insertSpaceEv
libepubgen-0.1.so.1:_ZN10libepubgen17EPUBTextGenerator11openCommentERKN10librevenge16RVNGPropertyListE
libepubgen-0.1.so.1:_ZN10libepubgen17EPUBTextGenerator11openEndnoteERKN10librevenge16RVNGPropertyListE
libepubgen-0.1.so.1:_ZN10libepubgen17EPUBTextGenerator11openSectionERKN10librevenge16RVNGPropertyListE
libepubgen-0.1.so.1:_ZN10libepubgen17EPUBTextGenerator11openTextBoxERKN10librevenge16RVNGPropertyListE
libepubgen-0.1.so.1:_ZN10libepubgen17EPUBTextGenerator12closeCommentEv
libepubgen-0.1.so.1:_ZN10libepubgen17EPUBTextGenerator12closeEndnoteEv
libepubgen-0.1.so.1:_ZN10libepubgen17EPUBTextGenerator12closeSectionEv
libepubgen-0.1.so.1:_ZN10libepubgen17EPUBTextGenerator12closeTextBoxEv
libepubgen-0.1.so.1:_ZN10libepubgen17EPUBTextGenerator12drawPolylineERKN10librevenge16RVNGPropertyListE
libepubgen-0.1.so.1:_ZN10libepubgen17EPUBTextGenerator12openFootnoteERKN10librevenge16RVNGPropertyListE
libepubgen-0.1.so.1:_ZN10libepubgen17EPUBTextGenerator12openPageSpanERKN10librevenge16RVNGPropertyListE
libepubgen-0.1.so.1:_ZN10libepubgen17EPUBTextGenerator12openTableRowERKN10librevenge16RVNGPropertyListE
libepubgen-0.1.so.1:_ZN10libepubgen17EPUBTextGenerator12setSplitSizeEj
libepubgen-0.1.so.1:_ZN10libepubgen17EPUBTextGenerator13closeFootnoteEv
libepubgen-0.1.so.1:_ZN10libepubgen17EPUBTextGenerator13closePageSpanEv
libepubgen-0.1.so.1:_ZN10libepubgen17EPUBTextGenerator13closeTableRowEv
libepubgen-0.1.so.1:_ZN10libepubgen17EPUBTextGenerator13drawConnectorERKN10librevenge16RVNGPropertyListE
libepubgen-0.1.so.1:_ZN10libepubgen17EPUBTextGenerator13drawRectangleERKN10librevenge16RVNGPropertyListE
libepubgen-0.1.so.1:_ZN10libepubgen17EPUBTextGenerator13openParagraphERKN10librevenge16RVNGPropertyListE
libepubgen-0.1.so.1:_ZN10libepubgen17EPUBTextGenerator13openTableCellERKN10librevenge16RVNGPropertyListE
libepubgen-0.1.so.1:_ZN10libepubgen17EPUBTextGenerator13startDocumentERKN10librevenge16RVNGPropertyListE
libepubgen-0.1.so.1:_ZN10libepubgen17EPUBTextGenerator14closeParagraphEv
libepubgen-0.1.so.1:_ZN10libepubgen17EPUBTextGenerator14closeTableCellEv
libepubgen-0.1.so.1:_ZN10libepubgen17EPUBTextGenerator14insertEquationERKN10librevenge16RVNGPropertyListE
libepubgen-0.1.so.1:_ZN10libepubgen17EPUBTextGenerator15definePageStyleERKN10librevenge16RVNGPropertyListE
libepubgen-0.1.so.1:_ZN10libepubgen17EPUBTextGenerator15insertLineBreakEv
libepubgen-0.1.so.1:_ZN10libepubgen17EPUBTextGenerator15openListElementERKN10librevenge16RVNGPropertyListE
libepubgen-0.1.so.1:_ZN10libepubgen17EPUBTextGenerator16closeListElementEv
libepubgen-0.1.so.1:_ZN10libepubgen17EPUBTextGenerator18defineEmbeddedFontERKN10librevenge16RVNGPropertyListE
libepubgen-0.1.so.1:_ZN10libepubgen17EPUBTextGenerator18defineGraphicStyleERKN10librevenge16RVNGPropertyListE
libepubgen-0.1.so.1:_ZN10libepubgen17EPUBTextGenerator18defineSectionStyleERKN10librevenge16RVNGPropertyListE
libepubgen-0.1.so.1:_ZN10libepubgen17EPUBTextGenerator18insertBinaryObjectERKN10librevenge16RVNGPropertyListE
libepubgen-0.1.so.1:_ZN10libepubgen17EPUBTextGenerator19setDocumentMetaDataERKN10librevenge16RVNGPropertyListE
libepubgen-0.1.so.1:_ZN10libepubgen17EPUBTextGenerator20defineCharacterStyleERKN10librevenge16RVNGPropertyListE
libepubgen-0.1.so.1:_ZN10libepubgen17EPUBTextGenerator20defineParagraphStyleERKN10librevenge16RVNGPropertyListE
libepubgen-0.1.so.1:_ZN10libepubgen17EPUBTextGenerator20openOrderedListLevelERKN10librevenge16RVNGPropertyListE
libepubgen-0.1.so.1:_ZN10libepubgen17EPUBTextGenerator20setSplitHeadingLevelEj
libepubgen-0.1.so.1:_ZN10libepubgen17EPUBTextGenerator21closeOrderedListLevelEv
libepubgen-0.1.so.1:_ZN10libepubgen17EPUBTextGenerator22insertCoveredTableCellERKN10librevenge16RVNGPropertyListE
libepubgen-0.1.so.1:_ZN10libepubgen17EPUBTextGenerator22openUnorderedListLevelERKN10librevenge16RVNGPropertyListE
libepubgen-0.1.so.1:_ZN10libepubgen17EPUBTextGenerator23closeUnorderedListLevelEv
libepubgen-0.1.so.1:_ZN10libepubgen17EPUBTextGenerator28registerEmbeddedImageHandlerERKN10librevenge10RVNGStringEPFbRKNS1_14RVNGBinaryDataERS5_RNS_13EPUBImageTypeEE
libepubgen-0.1.so.1:_ZN10libepubgen17EPUBTextGenerator29registerEmbeddedObjectHandlerERKN10librevenge10RVNGStringEPFbRKNS1_14RVNGBinaryDataERKNS_20EPUBEmbeddingContactEE
libepubgen-0.1.so.1:_ZN10libepubgen17EPUBTextGenerator4Impl11endHtmlFileEv
libepubgen-0.1.so.1:_ZN10libepubgen17EPUBTextGenerator4Impl13startHtmlFileEv
libepubgen-0.1.so.1:_ZN10libepubgen17EPUBTextGenerator4ImplC1EPNS_11EPUBPackageEi
libepubgen-0.1.so.1:_ZN10libepubgen17EPUBTextGenerator4ImplC2EPNS_11EPUBPackageEi
libepubgen-0.1.so.1:_ZN10libepubgen17EPUBTextGenerator8drawPathERKN10librevenge16RVNGPropertyListE
libepubgen-0.1.so.1:_ZN10libepubgen17EPUBTextGenerator8openLinkERKN10librevenge16RVNGPropertyListE
libepubgen-0.1.so.1:_ZN10libepubgen17EPUBTextGenerator8openSpanERKN10librevenge16RVNGPropertyListE
libepubgen-0.1.so.1:_ZN10libepubgen17EPUBTextGenerator9closeLinkEv
libepubgen-0.1.so.1:_ZN10libepubgen17EPUBTextGenerator9closeSpanEv
libepubgen-0.1.so.1:_ZN10libepubgen17EPUBTextGenerator9insertTabEv
libepubgen-0.1.so.1:_ZN10libepubgen17EPUBTextGenerator9openFrameERKN10librevenge16RVNGPropertyListE
libepubgen-0.1.so.1:_ZN10libepubgen17EPUBTextGenerator9openGroupERKN10librevenge16RVNGPropertyListE
libepubgen-0.1.so.1:_ZN10libepubgen17EPUBTextGenerator9openTableERKN10librevenge16RVNGPropertyListE
libepubgen-0.1.so.1:_ZN10libepubgen17EPUBTextGenerator9setOptionEii
libepubgen-0.1.so.1:_ZN10libepubgen17EPUBTextGeneratorC1EPNS_11EPUBPackageEi
libepubgen-0.1.so.1:_ZN10libepubgen17EPUBTextGeneratorC1ERNS_20EPUBEmbeddingContactEPNS_11EPUBPackageE
libepubgen-0.1.so.1:_ZN10libepubgen17EPUBTextGeneratorC2EPNS_11EPUBPackageEi
libepubgen-0.1.so.1:_ZN10libepubgen17EPUBTextGeneratorC2ERNS_20EPUBEmbeddingContactEPNS_11EPUBPackageE
libepubgen-0.1.so.1:_ZN10libepubgen17EPUBTextGeneratorD0Ev
libepubgen-0.1.so.1:_ZN10libepubgen17EPUBTextGeneratorD1Ev
libepubgen-0.1.so.1:_ZN10libepubgen17EPUBTextGeneratorD2Ev
libepubgen-0.1.so.1:_ZN10libepubgen20EPUBDrawingGenerator10closeGroupEv
libepubgen-0.1.so.1:_ZN10libepubgen20EPUBDrawingGenerator10insertTextERKN10librevenge10RVNGStringE
libepubgen-0.1.so.1:_ZN10libepubgen20EPUBDrawingGenerator10startLayerERKN10librevenge16RVNGPropertyListE
libepubgen-0.1.so.1:_ZN10libepubgen20EPUBDrawingGenerator11drawEllipseERKN10librevenge16RVNGPropertyListE
libepubgen-0.1.so.1:_ZN10libepubgen20EPUBDrawingGenerator11drawPolygonERKN10librevenge16RVNGPropertyListE
libepubgen-0.1.so.1:_ZN10libepubgen20EPUBDrawingGenerator11endDocumentEv
libepubgen-0.1.so.1:_ZN10libepubgen20EPUBDrawingGenerator11insertFieldERKN10librevenge16RVNGPropertyListE
libepubgen-0.1.so.1:_ZN10libepubgen20EPUBDrawingGenerator11insertSpaceEv
libepubgen-0.1.so.1:_ZN10libepubgen20EPUBDrawingGenerator12drawPolylineERKN10librevenge16RVNGPropertyListE
libepubgen-0.1.so.1:_ZN10libepubgen20EPUBDrawingGenerator12openTableRowERKN10librevenge16RVNGPropertyListE
libepubgen-0.1.so.1:_ZN10libepubgen20EPUBDrawingGenerator12setSplitSizeEj
libepubgen-0.1.so.1:_ZN10libepubgen20EPUBDrawingGenerator13closeTableRowEv
libepubgen-0.1.so.1:_ZN10libepubgen20EPUBDrawingGenerator13drawConnectorERKN10librevenge16RVNGPropertyListE
libepubgen-0.1.so.1:_ZN10libepubgen20EPUBDrawingGenerator13drawRectangleERKN10librevenge16RVNGPropertyListE
libepubgen-0.1.so.1:_ZN10libepubgen20EPUBDrawingGenerator13endMasterPageEv
libepubgen-0.1.so.1:_ZN10libepubgen20EPUBDrawingGenerator13endTextObjectEv
libepubgen-0.1.so.1:_ZN10libepubgen20EPUBDrawingGenerator13openParagraphERKN10librevenge16RVNGPropertyListE
libepubgen-0.1.so.1:_ZN10libepubgen20EPUBDrawingGenerator13openTableCellERKN10librevenge16RVNGPropertyListE
libepubgen-0.1.so.1:_ZN10libepubgen20EPUBDrawingGenerator13startDocumentERKN10librevenge16RVNGPropertyListE
libepubgen-0.1.so.1:_ZN10libepubgen20EPUBDrawingGenerator14closeParagraphEv
libepubgen-0.1.so.1:_ZN10libepubgen20EPUBDrawingGenerator14closeTableCellEv
libepubgen-0.1.so.1:_ZN10libepubgen20EPUBDrawingGenerator14endTableObjectEv
libepubgen-0.1.so.1:_ZN10libepubgen20EPUBDrawingGenerator15insertLineBreakEv
libepubgen-0.1.so.1:_ZN10libepubgen20EPUBDrawingGenerator15openListElementERKN10librevenge16RVNGPropertyListE
libepubgen-0.1.so.1:_ZN10libepubgen20EPUBDrawingGenerator15startMasterPageERKN10librevenge16RVNGPropertyListE
libepubgen-0.1.so.1:_ZN10libepubgen20EPUBDrawingGenerator15startTextObjectERKN10librevenge16RVNGPropertyListE
libepubgen-0.1.so.1:_ZN10libepubgen20EPUBDrawingGenerator16closeListElementEv
libepubgen-0.1.so.1:_ZN10libepubgen20EPUBDrawingGenerator16startTableObjectERKN10librevenge16RVNGPropertyListE
libepubgen-0.1.so.1:_ZN10libepubgen20EPUBDrawingGenerator17drawGraphicObjectERKN10librevenge16RVNGPropertyListE
libepubgen-0.1.so.1:_ZN10libepubgen20EPUBDrawingGenerator18defineEmbeddedFontERKN10librevenge16RVNGPropertyListE
libepubgen-0.1.so.1:_ZN10libepubgen20EPUBDrawingGenerator19endEmbeddedGraphicsEv
libepubgen-0.1.so.1:_ZN10libepubgen20EPUBDrawingGenerator19setDocumentMetaDataERKN10librevenge16RVNGPropertyListE
libepubgen-0.1.so.1:_ZN10libepubgen20EPUBDrawingGenerator20defineCharacterStyleERKN10librevenge16RVNGPropertyListE
libepubgen-0.1.so.1:_ZN10libepubgen20EPUBDrawingGenerator20defineParagraphStyleERKN10librevenge16RVNGPropertyListE
libepubgen-0.1.so.1:_ZN10libepubgen20EPUBDrawingGenerator20openOrderedListLevelERKN10librevenge16RVNGPropertyListE
libepubgen-0.1.so.1:_ZN10libepubgen20EPUBDrawingGenerator20setSplitHeadingLevelEj
libepubgen-0.1.so.1:_ZN10libepubgen20EPUBDrawingGenerator21closeOrderedListLevelEv
libepubgen-0.1.so.1:_ZN10libepubgen20EPUBDrawingGenerator21startEmbeddedGraphicsERKN10librevenge16RVNGPropertyListE
libepubgen-0.1.so.1:_ZN10libepubgen20EPUBDrawingGenerator22insertCoveredTableCellERKN10librevenge16RVNGPropertyListE
libepubgen-0.1.so.1:_ZN10libepubgen20EPUBDrawingGenerator22openUnorderedListLevelERKN10librevenge16RVNGPropertyListE
libepubgen-0.1.so.1:_ZN10libepubgen20EPUBDrawingGenerator23closeUnorderedListLevelEv
libepubgen-0.1.so.1:_ZN10libepubgen20EPUBDrawingGenerator28registerEmbeddedImageHandlerERKN10librevenge10RVNGStringEPFbRKNS1_14RVNGBinaryDataERS5_RNS_13EPUBImageTypeEE
libepubgen-0.1.so.1:_ZN10libepubgen20EPUBDrawingGenerator29registerEmbeddedObjectHandlerERKN10librevenge10RVNGStringEPFbRKNS1_14RVNGBinaryDataERKNS_20EPUBEmbeddingContactEE
libepubgen-0.1.so.1:_ZN10libepubgen20EPUBDrawingGenerator4ImplC1EPNS_11EPUBPackageEi
libepubgen-0.1.so.1:_ZN10libepubgen20EPUBDrawingGenerator4ImplC2EPNS_11EPUBPackageEi
libepubgen-0.1.so.1:_ZN10libepubgen20EPUBDrawingGenerator7endPageEv
libepubgen-0.1.so.1:_ZN10libepubgen20EPUBDrawingGenerator8drawPathERKN10librevenge16RVNGPropertyListE
libepubgen-0.1.so.1:_ZN10libepubgen20EPUBDrawingGenerator8endLayerEv
libepubgen-0.1.so.1:_ZN10libepubgen20EPUBDrawingGenerator8openLinkERKN10librevenge16RVNGPropertyListE
libepubgen-0.1.so.1:_ZN10libepubgen20EPUBDrawingGenerator8openSpanERKN10librevenge16RVNGPropertyListE
libepubgen-0.1.so.1:_ZN10libepubgen20EPUBDrawingGenerator8setStyleERKN10librevenge16RVNGPropertyListE
libepubgen-0.1.so.1:_ZN10libepubgen20EPUBDrawingGenerator9closeLinkEv
libepubgen-0.1.so.1:_ZN10libepubgen20EPUBDrawingGenerator9closeSpanEv
libepubgen-0.1.so.1:_ZN10libepubgen20EPUBDrawingGenerator9insertTabEv
libepubgen-0.1.so.1:_ZN10libepubgen20EPUBDrawingGenerator9openGroupERKN10librevenge16RVNGPropertyListE
libepubgen-0.1.so.1:_ZN10libepubgen20EPUBDrawingGenerator9setOptionEii
libepubgen-0.1.so.1:_ZN10libepubgen20EPUBDrawingGenerator9startPageERKN10librevenge16RVNGPropertyListE
libepubgen-0.1.so.1:_ZN10libepubgen20EPUBDrawingGeneratorC1EPNS_11EPUBPackageEi
libepubgen-0.1.so.1:_ZN10libepubgen20EPUBDrawingGeneratorC1ERNS_20EPUBEmbeddingContactEPNS_11EPUBPackageE
libepubgen-0.1.so.1:_ZN10libepubgen20EPUBDrawingGeneratorC2EPNS_11EPUBPackageEi
libepubgen-0.1.so.1:_ZN10libepubgen20EPUBDrawingGeneratorC2ERNS_20EPUBEmbeddingContactEPNS_11EPUBPackageE
libepubgen-0.1.so.1:_ZN10libepubgen20EPUBDrawingGeneratorD0Ev
libepubgen-0.1.so.1:_ZN10libepubgen20EPUBDrawingGeneratorD1Ev
libepubgen-0.1.so.1:_ZN10libepubgen20EPUBDrawingGeneratorD2Ev
libepubgen-0.1.so.1:_ZN10libepubgen25EPUBPresentationGenerator10closeChartEv
libepubgen-0.1.so.1:_ZN10libepubgen25EPUBPresentationGenerator10closeGroupEv
libepubgen-0.1.so.1:_ZN10libepubgen25EPUBPresentationGenerator10endCommentEv
libepubgen-0.1.so.1:_ZN10libepubgen25EPUBPresentationGenerator10insertTextERKN10librevenge10RVNGStringE
libepubgen-0.1.so.1:_ZN10libepubgen25EPUBPresentationGenerator10startLayerERKN10librevenge16RVNGPropertyListE
libepubgen-0.1.so.1:_ZN10libepubgen25EPUBPresentationGenerator10startNotesERKN10librevenge16RVNGPropertyListE
libepubgen-0.1.so.1:_ZN10libepubgen25EPUBPresentationGenerator10startSlideERKN10librevenge16RVNGPropertyListE
libepubgen-0.1.so.1:_ZN10libepubgen25EPUBPresentationGenerator11drawEllipseERKN10librevenge16RVNGPropertyListE
libepubgen-0.1.so.1:_ZN10libepubgen25EPUBPresentationGenerator11drawPolygonERKN10librevenge16RVNGPropertyListE
libepubgen-0.1.so.1:_ZN10libepubgen25EPUBPresentationGenerator11endDocumentEv
libepubgen-0.1.so.1:_ZN10libepubgen25EPUBPresentationGenerator11insertFieldERKN10librevenge16RVNGPropertyListE
libepubgen-0.1.so.1:_ZN10libepubgen25EPUBPresentationGenerator11insertSpaceEv
libepubgen-0.1.so.1:_ZN10libepubgen25EPUBPresentationGenerator12drawPolylineERKN10librevenge16RVNGPropertyListE
libepubgen-0.1.so.1:_ZN10libepubgen25EPUBPresentationGenerator12insertEffectERKN10librevenge16RVNGPropertyListE
libepubgen-0.1.so.1:_ZN10libepubgen25EPUBPresentationGenerator12openTableRowERKN10librevenge16RVNGPropertyListE
libepubgen-0.1.so.1:_ZN10libepubgen25EPUBPresentationGenerator12setSplitSizeEj
libepubgen-0.1.so.1:_ZN10libepubgen25EPUBPresentationGenerator12startCommentERKN10librevenge16RVNGPropertyListE
libepubgen-0.1.so.1:_ZN10libepubgen25EPUBPresentationGenerator13closeTableRowEv
libepubgen-0.1.so.1:_ZN10libepubgen25EPUBPresentationGenerator13drawConnectorERKN10librevenge16RVNGPropertyListE
libepubgen-0.1.so.1:_ZN10libepubgen25EPUBPresentationGenerator13drawRectangleERKN10librevenge16RVNGPropertyListE
libepubgen-0.1.so.1:_ZN10libepubgen25EPUBPresentationGenerator13endTextObjectEv
libepubgen-0.1.so.1:_ZN10libepubgen25EPUBPresentationGenerator13openParagraphERKN10librevenge16RVNGPropertyListE
libepubgen-0.1.so.1:_ZN10libepubgen25EPUBPresentationGenerator13openTableCellERKN10librevenge16RVNGPropertyListE
libepubgen-0.1.so.1:_ZN10libepubgen25EPUBPresentationGenerator13startDocumentERKN10librevenge16RVNGPropertyListE
libepubgen-0.1.so.1:_ZN10libepubgen25EPUBPresentationGenerator14closeParagraphEv
libepubgen-0.1.so.1:_ZN10libepubgen25EPUBPresentationGenerator14closeTableCellEv
libepubgen-0.1.so.1:_ZN10libepubgen25EPUBPresentationGenerator14endMasterSlideEv
libepubgen-0.1.so.1:_ZN10libepubgen25EPUBPresentationGenerator14endTableObjectEv
libepubgen-0.1.so.1:_ZN10libepubgen25EPUBPresentationGenerator15insertAnimationERKN10librevenge16RVNGPropertyListE
libepubgen-0.1.so.1:_ZN10libepubgen25EPUBPresentationGenerator15insertChartAxisERKN10librevenge16RVNGPropertyListE
libepubgen-0.1.so.1:_ZN10libepubgen25EPUBPresentationGenerator15insertLineBreakEv
libepubgen-0.1.so.1:_ZN10libepubgen25EPUBPresentationGenerator15openChartSeriesERKN10librevenge16RVNGPropertyListE
libepubgen-0.1.so.1:_ZN10libepubgen25EPUBPresentationGenerator15openListElementERKN10librevenge16RVNGPropertyListE
libepubgen-0.1.so.1:_ZN10libepubgen25EPUBPresentationGenerator15startTextObjectERKN10librevenge16RVNGPropertyListE
libepubgen-0.1.so.1:_ZN10libepubgen25EPUBPresentationGenerator16closeChartSeriesEv
libepubgen-0.1.so.1:_ZN10libepubgen25EPUBPresentationGenerator16closeListElementEv
libepubgen-0.1.so.1:_ZN10libepubgen25EPUBPresentationGenerator16defineChartStyleERKN10librevenge16RVNGPropertyListE
libepubgen-0.1.so.1:_ZN10libepubgen25EPUBPresentationGenerator16startMasterSlideERKN10librevenge16RVNGPropertyListE
libepubgen-0.1.so.1:_ZN10libepubgen25EPUBPresentationGenerator16startTableObjectERKN10librevenge16RVNGPropertyListE
libepubgen-0.1.so.1:_ZN10libepubgen25EPUBPresentationGenerator17drawGraphicObjectERKN10librevenge16RVNGPropertyListE
libepubgen-0.1.so.1:_ZN10libepubgen25EPUBPresentationGenerator17openChartPlotAreaERKN10librevenge16RVNGPropertyListE
libepubgen-0.1.so.1:_ZN10libepubgen25EPUBPresentationGenerator18closeChartPlotAreaEv
libepubgen-0.1.so.1:_ZN10libepubgen25EPUBPresentationGenerator18defineEmbeddedFontERKN10librevenge16RVNGPropertyListE
libepubgen-0.1.so.1:_ZN10libepubgen25EPUBPresentationGenerator18openAnimationGroupERKN10librevenge16RVNGPropertyListE
libepubgen-0.1.so.1:_ZN10libepubgen25EPUBPresentationGenerator18setSlideTransitionERKN10librevenge16RVNGPropertyListE
libepubgen-0.1.so.1:_ZN10libepubgen25EPUBPresentationGenerator19closeAnimationGroupEv
libepubgen-0.1.so.1:_ZN10libepubgen25EPUBPresentationGenerator19endEmbeddedGraphicsEv
libepubgen-0.1.so.1:_ZN10libepubgen25EPUBPresentationGenerator19openChartTextObjectERKN10librevenge16RVNGPropertyListE
libepubgen-0.1.so.1:_ZN10libepubgen25EPUBPresentationGenerator19setDocumentMetaDataERKN10librevenge16RVNGPropertyListE
libepubgen-0.1.so.1:_ZN10libepubgen25EPUBPresentationGenerator20closeChartTextObjectEv
libepubgen-0.1.so.1:_ZN10libepubgen25EPUBPresentationGenerator20defineCharacterStyleERKN10librevenge16RVNGPropertyListE
libepubgen-0.1.so.1:_ZN10libepubgen25EPUBPresentationGenerator20defineParagraphStyleERKN10librevenge16RVNGPropertyListE
libepubgen-0.1.so.1:_ZN10libepubgen25EPUBPresentationGenerator20insertColorAnimationERKN10librevenge16RVNGPropertyListE
libepubgen-0.1.so.1:_ZN10libepubgen25EPUBPresentationGenerator20openOrderedListLevelERKN10librevenge16RVNGPropertyListE
libepubgen-0.1.so.1:_ZN10libepubgen25EPUBPresentationGenerator20setSplitHeadingLevelEj
libepubgen-0.1.so.1:_ZN10libepubgen25EPUBPresentationGenerator21closeOrderedListLevelEv
libepubgen-0.1.so.1:_ZN10libepubgen25EPUBPresentationGenerator21insertMotionAnimationERKN10librevenge16RVNGPropertyListE
libepubgen-0.1.so.1:_ZN10libepubgen25EPUBPresentationGenerator21openAnimationSequenceERKN10librevenge16RVNGPropertyListE
libepubgen-0.1.so.1:_ZN10libepubgen25EPUBPresentationGenerator21startEmbeddedGraphicsERKN10librevenge16RVNGPropertyListE
libepubgen-0.1.so.1:_ZN10libepubgen25EPUBPresentationGenerator22closeAnimationSequenceEv
libepubgen-0.1.so.1:_ZN10libepubgen25EPUBPresentationGenerator22insertCoveredTableCellERKN10librevenge16RVNGPropertyListE
libepubgen-0.1.so.1:_ZN10libepubgen25EPUBPresentationGenerator22openAnimationIterationERKN10librevenge16RVNGPropertyListE
libepubgen-0.1.so.1:_ZN10libepubgen25EPUBPresentationGenerator22openUnorderedListLevelERKN10librevenge16RVNGPropertyListE
libepubgen-0.1.so.1:_ZN10libepubgen25EPUBPresentationGenerator23closeAnimationIterationEv
libepubgen-0.1.so.1:_ZN10libepubgen25EPUBPresentationGenerator23closeUnorderedListLevelEv
libepubgen-0.1.so.1:_ZN10libepubgen25EPUBPresentationGenerator28registerEmbeddedImageHandlerERKN10librevenge10RVNGStringEPFbRKNS1_14RVNGBinaryDataERS5_RNS_13EPUBImageTypeEE
libepubgen-0.1.so.1:_ZN10libepubgen25EPUBPresentationGenerator29registerEmbeddedObjectHandlerERKN10librevenge10RVNGStringEPFbRKNS1_14RVNGBinaryDataERKNS_20EPUBEmbeddingContactEE
libepubgen-0.1.so.1:_ZN10libepubgen25EPUBPresentationGenerator4ImplC1EPNS_11EPUBPackageEi
libepubgen-0.1.so.1:_ZN10libepubgen25EPUBPresentationGenerator4ImplC2EPNS_11EPUBPackageEi
libepubgen-0.1.so.1:_ZN10libepubgen25EPUBPresentationGenerator8drawPathERKN10librevenge16RVNGPropertyListE
libepubgen-0.1.so.1:_ZN10libepubgen25EPUBPresentationGenerator8endLayerEv
libepubgen-0.1.so.1:_ZN10libepubgen25EPUBPresentationGenerator8endNotesEv
libepubgen-0.1.so.1:_ZN10libepubgen25EPUBPresentationGenerator8endSlideEv
libepubgen-0.1.so.1:_ZN10libepubgen25EPUBPresentationGenerator8openLinkERKN10librevenge16RVNGPropertyListE
libepubgen-0.1.so.1:_ZN10libepubgen25EPUBPresentationGenerator8openSpanERKN10librevenge16RVNGPropertyListE
libepubgen-0.1.so.1:_ZN10libepubgen25EPUBPresentationGenerator8setStyleERKN10librevenge16RVNGPropertyListE
libepubgen-0.1.so.1:_ZN10libepubgen25EPUBPresentationGenerator9closeLinkEv
libepubgen-0.1.so.1:_ZN10libepubgen25EPUBPresentationGenerator9closeSpanEv
libepubgen-0.1.so.1:_ZN10libepubgen25EPUBPresentationGenerator9insertTabEv
libepubgen-0.1.so.1:_ZN10libepubgen25EPUBPresentationGenerator9openChartERKN10librevenge16RVNGPropertyListE
libepubgen-0.1.so.1:_ZN10libepubgen25EPUBPresentationGenerator9openGroupERKN10librevenge16RVNGPropertyListE
libepubgen-0.1.so.1:_ZN10libepubgen25EPUBPresentationGenerator9setOptionEii
libepubgen-0.1.so.1:_ZN10libepubgen25EPUBPresentationGeneratorC1EPNS_11EPUBPackageEi
libepubgen-0.1.so.1:_ZN10libepubgen25EPUBPresentationGeneratorC1ERNS_20EPUBEmbeddingContactEPNS_11EPUBPackageE
libepubgen-0.1.so.1:_ZN10libepubgen25EPUBPresentationGeneratorC2EPNS_11EPUBPackageEi
libepubgen-0.1.so.1:_ZN10libepubgen25EPUBPresentationGeneratorC2ERNS_20EPUBEmbeddingContactEPNS_11EPUBPackageE
libepubgen-0.1.so.1:_ZN10libepubgen25EPUBPresentationGeneratorD0Ev
libepubgen-0.1.so.1:_ZN10libepubgen25EPUBPresentationGeneratorD1Ev
libepubgen-0.1.so.1:_ZN10libepubgen25EPUBPresentationGeneratorD2Ev
